target datalayout = "e-m:e-p270:32:32-p271:32:32-p272:64:64-i64:64-i128:128-f80:128-n8:16:32:64-S128"
target triple = "x86_64-pc-linux-gnu"

%struct.IDAMemRec = type { ptr, double, ptr, ptr, i32, double, double, ptr, i32, i32, ptr, ptr, i32, i32, [6 x ptr], [6 x double], [6 x double], [6 x double], [6 x double], [6 x double], ptr, ptr, ptr, ptr, ptr, ptr, ptr, ptr, ptr, ptr, ptr, ptr, ptr, ptr, ptr, ptr, ptr, double, ptr, ptr, i32, i32, i32, i32, i32, i32, i32, i32, double, double, double, i32, double, i32, i32, i32, i32, i32, double, double, double, double, double, double, double, double, double, double, double, double, double, double, double, double, i32, i32, i32, i32, i64, double, double, double, double, double, double, double, double, double, i64, i64, i64, i64, i64, i64, i64, i64, i64, i64, i64, double, i32, i32, i32, i32, i32, ptr, i32, ptr, ptr, ptr, ptr, ptr, ptr, ptr, double, i32, ptr, i32, ptr, ptr, double, double, double, ptr, ptr, ptr, double, double, i32, i32, i64, ptr, i32, [6 x double], [5 x double], [6 x ptr], [6 x ptr] }
%struct._generic_N_Vector = type { ptr, ptr, ptr }
%struct._generic_N_Vector_Ops = type { ptr, ptr, ptr, ptr, ptr, ptr, ptr, ptr, ptr, ptr, ptr, ptr, ptr, ptr, ptr, ptr, ptr, ptr, ptr, ptr, ptr, ptr, ptr, ptr, ptr, ptr, ptr, ptr, ptr, ptr, ptr, ptr, ptr, ptr, ptr, ptr, ptr, ptr, ptr, ptr, ptr, ptr, ptr, ptr, ptr, ptr, ptr, ptr, ptr, ptr, ptr, ptr, ptr, ptr, ptr, ptr }

@.str = private unnamed_addr constant [112 x i8] c"generated/home/dtcxzyw/WorkSpace/Projects/compilers/llvm-opt-benchmark/bench/sundials/sundials/src/ida/ida_ls.c\00", align 1
@.str.1 = private unnamed_addr constant [27 x i8] c"Integrator memory is NULL.\00", align 1
@.str.4 = private unnamed_addr constant [48 x i8] c"A required vector operation is not implemented.\00", align 1
@__func__.idaLsDQJac = private unnamed_addr constant [11 x i8] c"idaLsDQJac\00", align 1
@.str.30 = private unnamed_addr constant [30 x i8] c"Linear solver memory is NULL.\00", align 1
@.str.31 = private unnamed_addr constant [40 x i8] c"unrecognized matrix type for idaLsDQJac\00", align 1

; Function Attrs: nounwind uwtable
define i32 @idaLsDQJac(double noundef %0, double noundef %1, ptr noundef %2, ptr noundef %3, ptr noundef %4, ptr noundef %5, ptr noundef %6, ptr noundef %7, ptr noundef %8, ptr noundef %9) #0 {
  %11 = alloca i32, align 4
  %12 = alloca double, align 8
  %13 = alloca double, align 8
  %14 = alloca ptr, align 8
  %15 = alloca ptr, align 8
  %16 = alloca ptr, align 8
  %17 = alloca ptr, align 8
  %18 = alloca ptr, align 8
  %19 = alloca ptr, align 8
  %20 = alloca ptr, align 8
  %21 = alloca ptr, align 8
  %22 = alloca i32, align 4
  %23 = alloca ptr, align 8
  %24 = alloca i32, align 4
  store double %0, ptr %12, align 8, !tbaa !92
  store double %1, ptr %13, align 8, !tbaa !92
  store ptr %2, ptr %14, align 8, !tbaa !81
  store ptr %3, ptr %15, align 8, !tbaa !81
  store ptr %4, ptr %16, align 8, !tbaa !81
  store ptr %5, ptr %17, align 8, !tbaa !9
  store ptr %6, ptr %18, align 8, !tbaa !3
  store ptr %7, ptr %19, align 8, !tbaa !81
  store ptr %8, ptr %20, align 8, !tbaa !81
  store ptr %9, ptr %21, align 8, !tbaa !81
  call void @llvm.lifetime.start.p0(i64 4, ptr %22) #7
  call void @llvm.lifetime.start.p0(i64 8, ptr %23) #7
  %25 = load ptr, ptr %18, align 8, !tbaa !3
  store ptr %25, ptr %23, align 8, !tbaa !11
  %26 = load ptr, ptr %18, align 8, !tbaa !3
  %27 = icmp eq ptr %26, null
  br i1 %27, label %28, label %29

28:                                               ; preds = %10
  call void (ptr, i32, i32, ptr, ptr, ptr, ...) @IDAProcessError(ptr noundef null, i32 noundef -1, i32 noundef 900, ptr noundef @__func__.idaLsDQJac, ptr noundef @.str, ptr noundef @.str.1)
  store i32 -1, ptr %11, align 4
  store i32 1, ptr %24, align 4
  br label %125

29:                                               ; preds = %10
  %30 = load ptr, ptr %17, align 8, !tbaa !9
  %31 = icmp eq ptr %30, null
  br i1 %31, label %32, label %34

32:                                               ; preds = %29
  %33 = load ptr, ptr %23, align 8, !tbaa !11
  call void (ptr, i32, i32, ptr, ptr, ptr, ...) @IDAProcessError(ptr noundef %33, i32 noundef -2, i32 noundef 908, ptr noundef @__func__.idaLsDQJac, ptr noundef @.str, ptr noundef @.str.30)
  store i32 -2, ptr %11, align 4
  store i32 1, ptr %24, align 4
  br label %125

34:                                               ; preds = %29
  %35 = load ptr, ptr %23, align 8, !tbaa !11
  %36 = getelementptr inbounds nuw %struct.IDAMemRec, ptr %35, i32 0, i32 30
  %37 = load ptr, ptr %36, align 8, !tbaa !22
  %38 = getelementptr inbounds nuw %struct._generic_N_Vector, ptr %37, i32 0, i32 1
  %39 = load ptr, ptr %38, align 8, !tbaa !30
  %40 = getelementptr inbounds nuw %struct._generic_N_Vector_Ops, ptr %39, i32 0, i32 2
  %41 = load ptr, ptr %40, align 8, !tbaa !107
  %42 = icmp eq ptr %41, null
  br i1 %42, label %88, label %43

43:                                               ; preds = %34
  %44 = load ptr, ptr %23, align 8, !tbaa !11
  %45 = getelementptr inbounds nuw %struct.IDAMemRec, ptr %44, i32 0, i32 30
  %46 = load ptr, ptr %45, align 8, !tbaa !22
  %47 = getelementptr inbounds nuw %struct._generic_N_Vector, ptr %46, i32 0, i32 1
  %48 = load ptr, ptr %47, align 8, !tbaa !30
  %49 = getelementptr inbounds nuw %struct._generic_N_Vector_Ops, ptr %48, i32 0, i32 11
  %50 = load ptr, ptr %49, align 8, !tbaa !108
  %51 = icmp eq ptr %50, null
  br i1 %51, label %88, label %52

52:                                               ; preds = %43
  %53 = load ptr, ptr %23, align 8, !tbaa !11
  %54 = getelementptr inbounds nuw %struct.IDAMemRec, ptr %53, i32 0, i32 30
  %55 = load ptr, ptr %54, align 8, !tbaa !22
  %56 = getelementptr inbounds nuw %struct._generic_N_Vector, ptr %55, i32 0, i32 1
  %57 = load ptr, ptr %56, align 8, !tbaa !30
  %58 = getelementptr inbounds nuw %struct._generic_N_Vector_Ops, ptr %57, i32 0, i32 3
  %59 = load ptr, ptr %58, align 8, !tbaa !109
  %60 = icmp eq ptr %59, null
  br i1 %60, label %88, label %61

61:                                               ; preds = %52
  %62 = load ptr, ptr %23, align 8, !tbaa !11
  %63 = getelementptr inbounds nuw %struct.IDAMemRec, ptr %62, i32 0, i32 30
  %64 = load ptr, ptr %63, align 8, !tbaa !22
  %65 = getelementptr inbounds nuw %struct._generic_N_Vector, ptr %64, i32 0, i32 1
  %66 = load ptr, ptr %65, align 8, !tbaa !30
  %67 = getelementptr inbounds nuw %struct._generic_N_Vector_Ops, ptr %66, i32 0, i32 15
  %68 = load ptr, ptr %67, align 8, !tbaa !110
  %69 = icmp eq ptr %68, null
  br i1 %69, label %88, label %70

70:                                               ; preds = %61
  %71 = load ptr, ptr %23, align 8, !tbaa !11
  %72 = getelementptr inbounds nuw %struct.IDAMemRec, ptr %71, i32 0, i32 30
  %73 = load ptr, ptr %72, align 8, !tbaa !22
  %74 = getelementptr inbounds nuw %struct._generic_N_Vector, ptr %73, i32 0, i32 1
  %75 = load ptr, ptr %74, align 8, !tbaa !30
  %76 = getelementptr inbounds nuw %struct._generic_N_Vector_Ops, ptr %75, i32 0, i32 5
  %77 = load ptr, ptr %76, align 8, !tbaa !111
  %78 = icmp eq ptr %77, null
  br i1 %78, label %88, label %79

79:                                               ; preds = %70
  %80 = load ptr, ptr %23, align 8, !tbaa !11
  %81 = getelementptr inbounds nuw %struct.IDAMemRec, ptr %80, i32 0, i32 30
  %82 = load ptr, ptr %81, align 8, !tbaa !22
  %83 = getelementptr inbounds nuw %struct._generic_N_Vector, ptr %82, i32 0, i32 1
  %84 = load ptr, ptr %83, align 8, !tbaa !30
  %85 = getelementptr inbounds nuw %struct._generic_N_Vector_Ops, ptr %84, i32 0, i32 7
  %86 = load ptr, ptr %85, align 8, !tbaa !112
  %87 = icmp eq ptr %86, null
  br i1 %87, label %88, label %90

88:                                               ; preds = %79, %70, %61, %52, %43, %34
  %89 = load ptr, ptr %23, align 8, !tbaa !11
  call void (ptr, i32, i32, ptr, ptr, ptr, ...) @IDAProcessError(ptr noundef %89, i32 noundef -3, i32 noundef 921, ptr noundef @__func__.idaLsDQJac, ptr noundef @.str, ptr noundef @.str.4)
  store i32 -3, ptr %11, align 4
  store i32 1, ptr %24, align 4
  br label %125

90:                                               ; preds = %79
  %91 = load ptr, ptr %17, align 8, !tbaa !9
  %92 = call i32 @SUNMatGetID(ptr noundef %91)
  %93 = icmp eq i32 %92, 0
  br i1 %93, label %94, label %104

94:                                               ; preds = %90
  %95 = load double, ptr %12, align 8, !tbaa !92
  %96 = load double, ptr %13, align 8, !tbaa !92
  %97 = load ptr, ptr %14, align 8, !tbaa !81
  %98 = load ptr, ptr %15, align 8, !tbaa !81
  %99 = load ptr, ptr %16, align 8, !tbaa !81
  %100 = load ptr, ptr %17, align 8, !tbaa !9
  %101 = load ptr, ptr %23, align 8, !tbaa !11
  %102 = load ptr, ptr %19, align 8, !tbaa !81
  %103 = call i32 @idaLsDenseDQJac(double noundef %95, double noundef %96, ptr noundef %97, ptr noundef %98, ptr noundef %99, ptr noundef %100, ptr noundef %101, ptr noundef %102)
  store i32 %103, ptr %22, align 4, !tbaa !20
  br label %123

104:                                              ; preds = %90
  %105 = load ptr, ptr %17, align 8, !tbaa !9
  %106 = call i32 @SUNMatGetID(ptr noundef %105)
  %107 = icmp eq i32 %106, 3
  br i1 %107, label %108, label %120

108:                                              ; preds = %104
  %109 = load double, ptr %12, align 8, !tbaa !92
  %110 = load double, ptr %13, align 8, !tbaa !92
  %111 = load ptr, ptr %14, align 8, !tbaa !81
  %112 = load ptr, ptr %15, align 8, !tbaa !81
  %113 = load ptr, ptr %16, align 8, !tbaa !81
  %114 = load ptr, ptr %17, align 8, !tbaa !9
  %115 = load ptr, ptr %23, align 8, !tbaa !11
  %116 = load ptr, ptr %19, align 8, !tbaa !81
  %117 = load ptr, ptr %20, align 8, !tbaa !81
  %118 = load ptr, ptr %21, align 8, !tbaa !81
  %119 = call i32 @idaLsBandDQJac(double noundef %109, double noundef %110, ptr noundef %111, ptr noundef %112, ptr noundef %113, ptr noundef %114, ptr noundef %115, ptr noundef %116, ptr noundef %117, ptr noundef %118)
  store i32 %119, ptr %22, align 4, !tbaa !20
  br label %122

120:                                              ; preds = %104
  %121 = load ptr, ptr %23, align 8, !tbaa !11
  call void (ptr, i32, i32, ptr, ptr, ptr, ...) @IDAProcessError(ptr noundef %121, i32 noundef -22, i32 noundef 937, ptr noundef @__func__.idaLsDQJac, ptr noundef @.str, ptr noundef @.str.31)
  store i32 -22, ptr %22, align 4, !tbaa !20
  br label %122

122:                                              ; preds = %120, %108
  br label %123

123:                                              ; preds = %122, %94
  %124 = load i32, ptr %22, align 4, !tbaa !20
  store i32 %124, ptr %11, align 4
  store i32 1, ptr %24, align 4
  br label %125

125:                                              ; preds = %123, %88, %32, %28
  call void @llvm.lifetime.end.p0(i64 8, ptr %23) #7
  call void @llvm.lifetime.end.p0(i64 4, ptr %22) #7
  %126 = load i32, ptr %11, align 4
  ret i32 %126
}