; Function Attrs: nounwind uwtable
define i32 @idaLsDQJac(double noundef %0, double noundef %1, ptr noundef %2, ptr noundef %3, ptr noundef %4, ptr noundef %5, ptr noundef %6, ptr noundef %7, ptr noundef %8, ptr noundef %9) #0 {
  %11 = icmp eq ptr %6, null
  br i1 %11, label %12, label %13

12:                                               ; preds = %10
  tail call void (ptr, i32, i32, ptr, ptr, ptr, ...) @IDAProcessError(ptr noundef null, i32 noundef -1, i32 noundef 900, ptr noundef nonnull @__func__.idaLsDQJac, ptr noundef nonnull @.str, ptr noundef nonnull @.str.1) #13
  br label %56

13:                                               ; preds = %10
  %14 = icmp eq ptr %5, null
  br i1 %14, label %15, label %16

15:                                               ; preds = %13
  tail call void (ptr, i32, i32, ptr, ptr, ptr, ...) @IDAProcessError(ptr noundef nonnull %6, i32 noundef -2, i32 noundef 908, ptr noundef nonnull @__func__.idaLsDQJac, ptr noundef nonnull @.str, ptr noundef nonnull @.str.30) #13
  br label %56

16:                                               ; preds = %13
  %17 = getelementptr inbounds nuw i8, ptr %6, i64 464
  %18 = load ptr, ptr %17, align 8, !tbaa !13
  %19 = getelementptr inbounds nuw i8, ptr %18, i64 8
  %20 = load ptr, ptr %19, align 8, !tbaa !22
  %21 = getelementptr inbounds nuw i8, ptr %20, i64 16
  %22 = load ptr, ptr %21, align 8, !tbaa !95
  %23 = icmp eq ptr %22, null
  br i1 %23, label %44, label %24

24:                                               ; preds = %16
  %25 = getelementptr inbounds nuw i8, ptr %20, i64 88
  %26 = load ptr, ptr %25, align 8, !tbaa !96
  %27 = icmp eq ptr %26, null
  br i1 %27, label %44, label %28

28:                                               ; preds = %24
  %29 = getelementptr inbounds nuw i8, ptr %20, i64 24
  %30 = load ptr, ptr %29, align 8, !tbaa !97
  %31 = icmp eq ptr %30, null
  br i1 %31, label %44, label %32

32:                                               ; preds = %28
  %33 = getelementptr inbounds nuw i8, ptr %20, i64 120
  %34 = load ptr, ptr %33, align 8, !tbaa !98
  %35 = icmp eq ptr %34, null
  br i1 %35, label %44, label %36

36:                                               ; preds = %32
  %37 = getelementptr inbounds nuw i8, ptr %20, i64 40
  %38 = load ptr, ptr %37, align 8, !tbaa !99
  %39 = icmp eq ptr %38, null
  br i1 %39, label %44, label %40

40:                                               ; preds = %36
  %41 = getelementptr inbounds nuw i8, ptr %20, i64 56
  %42 = load ptr, ptr %41, align 8, !tbaa !100
  %43 = icmp eq ptr %42, null
  br i1 %43, label %44, label %45

44:                                               ; preds = %40, %36, %32, %28, %24, %16
  tail call void (ptr, i32, i32, ptr, ptr, ptr, ...) @IDAProcessError(ptr noundef nonnull %6, i32 noundef -3, i32 noundef 921, ptr noundef nonnull @__func__.idaLsDQJac, ptr noundef nonnull @.str, ptr noundef nonnull @.str.4) #13
  br label %56

45:                                               ; preds = %40
  %46 = tail call i32 @SUNMatGetID(ptr noundef nonnull %5) #13
  %47 = icmp eq i32 %46, 0
  br i1 %47, label %48, label %50

48:                                               ; preds = %45
  %49 = tail call i32 @idaLsDenseDQJac(double noundef %0, double noundef %1, ptr noundef %2, ptr noundef %3, ptr noundef %4, ptr noundef nonnull %5, ptr noundef nonnull %6, ptr noundef %7)
  br label %56

50:                                               ; preds = %45
  %51 = tail call i32 @SUNMatGetID(ptr noundef nonnull %5) #13
  %52 = icmp eq i32 %51, 3
  br i1 %52, label %53, label %55

53:                                               ; preds = %50
  %54 = tail call i32 @idaLsBandDQJac(double noundef %0, double noundef %1, ptr noundef %2, ptr noundef %3, ptr noundef %4, ptr noundef nonnull %5, ptr noundef nonnull %6, ptr noundef %7, ptr noundef %8, ptr noundef %9)
  br label %56

55:                                               ; preds = %50
  tail call void (ptr, i32, i32, ptr, ptr, ptr, ...) @IDAProcessError(ptr noundef nonnull %6, i32 noundef -22, i32 noundef 937, ptr noundef nonnull @__func__.idaLsDQJac, ptr noundef nonnull @.str, ptr noundef nonnull @.str.31) #13
  br label %56

56:                                               ; preds = %48, %55, %53, %44, %15, %12
  %.0 = phi i32 [ -1, %12 ], [ -2, %15 ], [ -3, %44 ], [ %49, %48 ], [ %54, %53 ], [ -22, %55 ]
  ret i32 %.0
}